; ModuleID = '45/2371.c'
source_filename = "45/2371.c"
target datalayout = "e-m:e-p270:32:32-p271:32:32-p272:64:64-i64:64-f80:128-n8:16:32:64-S128"
target triple = "x86_64-pc-linux-gnu"

@.str = private unnamed_addr constant [5 x i8] c"%s%s\00", align 1
@.str.1 = private unnamed_addr constant [3 x i8] c"%d\00", align 1

; Function Attrs: noinline nounwind uwtable
define dso_local i32 @location(i8* %0, i8* %1) #0 {
  %3 = alloca i32, align 4
  %4 = alloca i8*, align 8
  %5 = alloca i8*, align 8
  %6 = alloca i32, align 4
  %7 = alloca i32, align 4
  %8 = alloca i32, align 4
  %9 = alloca i32, align 4
  store i8* %0, i8** %4, align 8
  store i8* %1, i8** %5, align 8
  store i32 0, i32* %6, align 4
  store i32 0, i32* %9, align 4
  %10 = load i8*, i8** %4, align 8
  %11 = call i64 @strlen(i8* %10) #4
  %12 = trunc i64 %11 to i32
  store i32 %12, i32* %8, align 4
  store i32 0, i32* %7, align 4
  br label %13

13:                                               ; preds = %77, %2
  %14 = load i8*, i8** %5, align 8
  %15 = load i32, i32* %7, align 4
  %16 = sext i32 %15 to i64
  %17 = getelementptr inbounds i8, i8* %14, i64 %16
  %18 = load i8, i8* %17, align 1
  %19 = sext i8 %18 to i32
  %20 = load i8*, i8** %4, align 8
  %21 = load i32, i32* %6, align 4
  %22 = sext i32 %21 to i64
  %23 = getelementptr inbounds i8, i8* %20, i64 %22
  %24 = load i8, i8* %23, align 1
  %25 = sext i8 %24 to i32
  %26 = icmp eq i32 %19, %25
  br i1 %26, label %27, label %76

27:                                               ; preds = %13
  br label %28

28:                                               ; preds = %49, %27
  %29 = load i32, i32* %6, align 4
  %30 = load i32, i32* %8, align 4
  %31 = icmp slt i32 %29, %30
  br i1 %31, label %32, label %46

32:                                               ; preds = %28
  %33 = load i8*, i8** %5, align 8
  %34 = load i32, i32* %7, align 4
  %35 = sext i32 %34 to i64
  %36 = getelementptr inbounds i8, i8* %33, i64 %35
  %37 = load i8, i8* %36, align 1
  %38 = sext i8 %37 to i32
  %39 = load i8*, i8** %4, align 8
  %40 = load i32, i32* %6, align 4
  %41 = sext i32 %40 to i64
  %42 = getelementptr inbounds i8, i8* %39, i64 %41
  %43 = load i8, i8* %42, align 1
  %44 = sext i8 %43 to i32
  %45 = icmp eq i32 %38, %44
  br label %46

46:                                               ; preds = %32, %28
  %47 = phi i1 [ false, %28 ], [ %45, %32 ]
  br i1 %47, label %48, label %54

48:                                               ; preds = %46
  br label %49

49:                                               ; preds = %48
  %50 = load i32, i32* %6, align 4
  %51 = add nsw i32 %50, 1
  store i32 %51, i32* %6, align 4
  %52 = load i32, i32* %7, align 4
  %53 = add nsw i32 %52, 1
  store i32 %53, i32* %7, align 4
  br label %28

54:                                               ; preds = %46
  %55 = load i32, i32* %6, align 4
  %56 = load i32, i32* %8, align 4
  %57 = icmp eq i32 %55, %56
  br i1 %57, label %58, label %75

58:                                               ; preds = %54
  %59 = load i8*, i8** %5, align 8
  %60 = load i32, i32* %7, align 4
  %61 = sub nsw i32 %60, 1
  %62 = sext i32 %61 to i64
  %63 = getelementptr inbounds i8, i8* %59, i64 %62
  %64 = load i8, i8* %63, align 1
  %65 = sext i8 %64 to i32
  %66 = load i8*, i8** %4, align 8
  %67 = load i32, i32* %6, align 4
  %68 = sub nsw i32 %67, 1
  %69 = sext i32 %68 to i64
  %70 = getelementptr inbounds i8, i8* %66, i64 %69
  %71 = load i8, i8* %70, align 1
  %72 = sext i8 %71 to i32
  %73 = icmp eq i32 %65, %72
  br i1 %73, label %74, label %75

74:                                               ; preds = %58
  store i32 1, i32* %9, align 4
  br label %80

75:                                               ; preds = %58, %54
  br label %76

76:                                               ; preds = %75, %13
  br label %77

77:                                               ; preds = %76
  %78 = load i32, i32* %7, align 4
  %79 = add nsw i32 %78, 1
  store i32 %79, i32* %7, align 4
  br label %13

80:                                               ; preds = %74
  %81 = load i32, i32* %9, align 4
  %82 = icmp eq i32 %81, 1
  br i1 %82, label %83, label %87

83:                                               ; preds = %80
  %84 = load i32, i32* %7, align 4
  %85 = load i32, i32* %8, align 4
  %86 = sub nsw i32 %84, %85
  store i32 %86, i32* %3, align 4
  br label %88

87:                                               ; preds = %80
  store i32 -1, i32* %3, align 4
  br label %88

88:                                               ; preds = %87, %83
  %89 = load i32, i32* %3, align 4
  ret i32 %89
}

; Function Attrs: nounwind readonly
declare dso_local i64 @strlen(i8*) #1

; Function Attrs: noinline nounwind uwtable
define dso_local i32 @main() #0 {
  %1 = alloca i32, align 4
  %2 = alloca i8*, align 8
  %3 = alloca i8*, align 8
  store i32 0, i32* %1, align 4
  %4 = call noalias i8* @malloc(i64 1) #5
  store i8* %4, i8** %2, align 8
  %5 = call noalias i8* @malloc(i64 1) #5
  store i8* %5, i8** %3, align 8
  %6 = load i8*, i8** %2, align 8
  %7 = load i8*, i8** %3, align 8
  %8 = call i32 (i8*, ...) @__isoc99_scanf(i8* getelementptr inbounds ([5 x i8], [5 x i8]* @.str, i64 0, i64 0), i8* %6, i8* %7)
  %9 = load i8*, i8** %2, align 8
  %10 = load i8*, i8** %3, align 8
  %11 = call i32 @location(i8* %9, i8* %10)
  %12 = call i32 (i8*, ...) @printf(i8* getelementptr inbounds ([3 x i8], [3 x i8]* @.str.1, i64 0, i64 0), i32 %11)
  ret i32 0
}

; Function Attrs: nounwind
declare dso_local noalias i8* @malloc(i64) #2

declare dso_local i32 @__isoc99_scanf(i8*, ...) #3

declare dso_local i32 @printf(i8*, ...) #3


!llvm.module.flags = !{!0}
!llvm.ident = !{!1}

!0 = !{i32 1, !"wchar_size", i32 4}
!1 = !{!"clang version 10.0.0-4ubuntu1 "}
